target datalayout = "e-m:e-p270:32:32-p271:32:32-p272:64:64-i64:64-i128:128-f80:128-n8:16:32:64-S128"
target triple = "x86_64-pc-linux-gnu"

%struct.MultirangeType = type { i32, i32, i32 }

@.str.1 = private unnamed_addr constant [18 x i8] c"rangetypes_gist.c\00", align 1
@.str.2 = private unnamed_addr constant [32 x i8] c"unrecognized range strategy: %d\00", align 1
@__func__.range_gist_consistent_int_multirange = private unnamed_addr constant [37 x i8] c"range_gist_consistent_int_multirange\00", align 1

; Function Attrs: nounwind uwtable
define internal zeroext i1 @range_gist_consistent_int_multirange(ptr noundef %0, i16 noundef zeroext %1, ptr noundef %2, ptr noundef %3) #0 {
  %5 = alloca i1, align 1
  %6 = alloca ptr, align 8
  %7 = alloca i16, align 2
  %8 = alloca ptr, align 8
  %9 = alloca ptr, align 8
  store ptr %0, ptr %6, align 8
  store i16 %1, ptr %7, align 2
  store ptr %2, ptr %8, align 8
  store ptr %3, ptr %9, align 8
  %10 = load i16, ptr %7, align 2
  %11 = zext i16 %10 to i32
  switch i32 %11, label %145 [
    i32 1, label %12
    i32 2, label %30
    i32 3, label %48
    i32 4, label %53
    i32 5, label %71
    i32 6, label %89
    i32 7, label %112
    i32 8, label %117
    i32 18, label %129
  ]

12:                                               ; preds = %4
  %13 = load ptr, ptr %8, align 8
  %14 = call signext i8 @range_get_flags(ptr noundef %13)
  %15 = sext i8 %14 to i32
  %16 = and i32 %15, 1
  %17 = icmp ne i32 %16, 0
  br i1 %17, label %23, label %18

18:                                               ; preds = %12
  %19 = load ptr, ptr %9, align 8
  %20 = getelementptr inbounds nuw %struct.MultirangeType, ptr %19, i32 0, i32 2
  %21 = load i32, ptr %20, align 4
  %22 = icmp eq i32 %21, 0
  br i1 %22, label %23, label %24

23:                                               ; preds = %18, %12
  store i1 false, ptr %5, align 1
  br label %157

24:                                               ; preds = %18
  %25 = load ptr, ptr %6, align 8
  %26 = load ptr, ptr %8, align 8
  %27 = load ptr, ptr %9, align 8
  %28 = call zeroext i1 @range_overright_multirange_internal(ptr noundef %25, ptr noundef %26, ptr noundef %27)
  %29 = xor i1 %28, true
  store i1 %29, ptr %5, align 1
  br label %157

30:                                               ; preds = %4
  %31 = load ptr, ptr %8, align 8
  %32 = call signext i8 @range_get_flags(ptr noundef %31)
  %33 = sext i8 %32 to i32
  %34 = and i32 %33, 1
  %35 = icmp ne i32 %34, 0
  br i1 %35, label %41, label %36

36:                                               ; preds = %30
  %37 = load ptr, ptr %9, align 8
  %38 = getelementptr inbounds nuw %struct.MultirangeType, ptr %37, i32 0, i32 2
  %39 = load i32, ptr %38, align 4
  %40 = icmp eq i32 %39, 0
  br i1 %40, label %41, label %42

41:                                               ; preds = %36, %30
  store i1 false, ptr %5, align 1
  br label %157

42:                                               ; preds = %36
  %43 = load ptr, ptr %6, align 8
  %44 = load ptr, ptr %8, align 8
  %45 = load ptr, ptr %9, align 8
  %46 = call zeroext i1 @range_after_multirange_internal(ptr noundef %43, ptr noundef %44, ptr noundef %45)
  %47 = xor i1 %46, true
  store i1 %47, ptr %5, align 1
  br label %157

48:                                               ; preds = %4
  %49 = load ptr, ptr %6, align 8
  %50 = load ptr, ptr %8, align 8
  %51 = load ptr, ptr %9, align 8
  %52 = call zeroext i1 @range_overlaps_multirange_internal(ptr noundef %49, ptr noundef %50, ptr noundef %51)
  store i1 %52, ptr %5, align 1
  br label %157

53:                                               ; preds = %4
  %54 = load ptr, ptr %8, align 8
  %55 = call signext i8 @range_get_flags(ptr noundef %54)
  %56 = sext i8 %55 to i32
  %57 = and i32 %56, 1
  %58 = icmp ne i32 %57, 0
  br i1 %58, label %64, label %59

59:                                               ; preds = %53
  %60 = load ptr, ptr %9, align 8
  %61 = getelementptr inbounds nuw %struct.MultirangeType, ptr %60, i32 0, i32 2
  %62 = load i32, ptr %61, align 4
  %63 = icmp eq i32 %62, 0
  br i1 %63, label %64, label %65

64:                                               ; preds = %59, %53
  store i1 false, ptr %5, align 1
  br label %157

65:                                               ; preds = %59
  %66 = load ptr, ptr %6, align 8
  %67 = load ptr, ptr %8, align 8
  %68 = load ptr, ptr %9, align 8
  %69 = call zeroext i1 @range_before_multirange_internal(ptr noundef %66, ptr noundef %67, ptr noundef %68)
  %70 = xor i1 %69, true
  store i1 %70, ptr %5, align 1
  br label %157

71:                                               ; preds = %4
  %72 = load ptr, ptr %8, align 8
  %73 = call signext i8 @range_get_flags(ptr noundef %72)
  %74 = sext i8 %73 to i32
  %75 = and i32 %74, 1
  %76 = icmp ne i32 %75, 0
  br i1 %76, label %82, label %77

77:                                               ; preds = %71
  %78 = load ptr, ptr %9, align 8
  %79 = getelementptr inbounds nuw %struct.MultirangeType, ptr %78, i32 0, i32 2
  %80 = load i32, ptr %79, align 4
  %81 = icmp eq i32 %80, 0
  br i1 %81, label %82, label %83

82:                                               ; preds = %77, %71
  store i1 false, ptr %5, align 1
  br label %157

83:                                               ; preds = %77
  %84 = load ptr, ptr %6, align 8
  %85 = load ptr, ptr %8, align 8
  %86 = load ptr, ptr %9, align 8
  %87 = call zeroext i1 @range_overleft_multirange_internal(ptr noundef %84, ptr noundef %85, ptr noundef %86)
  %88 = xor i1 %87, true
  store i1 %88, ptr %5, align 1
  br label %157

89:                                               ; preds = %4
  %90 = load ptr, ptr %8, align 8
  %91 = call signext i8 @range_get_flags(ptr noundef %90)
  %92 = sext i8 %91 to i32
  %93 = and i32 %92, 1
  %94 = icmp ne i32 %93, 0
  br i1 %94, label %100, label %95

95:                                               ; preds = %89
  %96 = load ptr, ptr %9, align 8
  %97 = getelementptr inbounds nuw %struct.MultirangeType, ptr %96, i32 0, i32 2
  %98 = load i32, ptr %97, align 4
  %99 = icmp eq i32 %98, 0
  br i1 %99, label %100, label %101

100:                                              ; preds = %95, %89
  store i1 false, ptr %5, align 1
  br label %157

101:                                              ; preds = %95
  %102 = load ptr, ptr %6, align 8
  %103 = load ptr, ptr %8, align 8
  %104 = load ptr, ptr %9, align 8
  %105 = call zeroext i1 @range_adjacent_multirange_internal(ptr noundef %102, ptr noundef %103, ptr noundef %104)
  br i1 %105, label %106, label %107

106:                                              ; preds = %101
  store i1 true, ptr %5, align 1
  br label %157

107:                                              ; preds = %101
  %108 = load ptr, ptr %6, align 8
  %109 = load ptr, ptr %8, align 8
  %110 = load ptr, ptr %9, align 8
  %111 = call zeroext i1 @range_overlaps_multirange_internal(ptr noundef %108, ptr noundef %109, ptr noundef %110)
  store i1 %111, ptr %5, align 1
  br label %157

112:                                              ; preds = %4
  %113 = load ptr, ptr %6, align 8
  %114 = load ptr, ptr %8, align 8
  %115 = load ptr, ptr %9, align 8
  %116 = call zeroext i1 @range_contains_multirange_internal(ptr noundef %113, ptr noundef %114, ptr noundef %115)
  store i1 %116, ptr %5, align 1
  br label %157

117:                                              ; preds = %4
  %118 = load ptr, ptr %8, align 8
  %119 = call signext i8 @range_get_flags(ptr noundef %118)
  %120 = sext i8 %119 to i32
  %121 = and i32 %120, 129
  %122 = icmp ne i32 %121, 0
  br i1 %122, label %123, label %124

123:                                              ; preds = %117
  store i1 true, ptr %5, align 1
  br label %157

124:                                              ; preds = %117
  %125 = load ptr, ptr %6, align 8
  %126 = load ptr, ptr %8, align 8
  %127 = load ptr, ptr %9, align 8
  %128 = call zeroext i1 @range_overlaps_multirange_internal(ptr noundef %125, ptr noundef %126, ptr noundef %127)
  store i1 %128, ptr %5, align 1
  br label %157

129:                                              ; preds = %4
  %130 = load ptr, ptr %9, align 8
  %131 = getelementptr inbounds nuw %struct.MultirangeType, ptr %130, i32 0, i32 2
  %132 = load i32, ptr %131, align 4
  %133 = icmp eq i32 %132, 0
  br i1 %133, label %134, label %140

134:                                              ; preds = %129
  %135 = load ptr, ptr %8, align 8
  %136 = call signext i8 @range_get_flags(ptr noundef %135)
  %137 = sext i8 %136 to i32
  %138 = and i32 %137, 129
  %139 = icmp ne i32 %138, 0
  store i1 %139, ptr %5, align 1
  br label %157

140:                                              ; preds = %129
  %141 = load ptr, ptr %6, align 8
  %142 = load ptr, ptr %8, align 8
  %143 = load ptr, ptr %9, align 8
  %144 = call zeroext i1 @range_contains_multirange_internal(ptr noundef %141, ptr noundef %142, ptr noundef %143)
  store i1 %144, ptr %5, align 1
  br label %157

145:                                              ; preds = %4
  br label %146

146:                                              ; preds = %145
  br i1 true, label %147, label %149

147:                                              ; preds = %146
  %148 = call zeroext i1 @errstart_cold(i32 noundef 21, ptr noundef null) #9
  br i1 %148, label %151, label %155

149:                                              ; preds = %146
  %150 = call zeroext i1 @errstart(i32 noundef 21, ptr noundef null)
  br i1 %150, label %151, label %155

151:                                              ; preds = %149, %147
  %152 = load i16, ptr %7, align 2
  %153 = zext i16 %152 to i32
  %154 = call i32 (ptr, ...) @errmsg_internal(ptr noundef @.str.2, i32 noundef %153)
  call void @errfinish(ptr noundef @.str.1, i32 noundef 1030, ptr noundef @__func__.range_gist_consistent_int_multirange)
  br label %155

155:                                              ; preds = %151, %149, %147
  unreachable

156:                                              ; No predecessors!
  store i1 false, ptr %5, align 1
  br label %157

157:                                              ; preds = %156, %140, %134, %124, %123, %112, %107, %106, %100, %83, %82, %65, %64, %48, %42, %41, %24, %23
  %158 = load i1, ptr %5, align 1
  ret i1 %158
}