; Function Attrs: nounwind uwtable
define internal fastcc zeroext i1 @range_gist_consistent_int_multirange(ptr noundef %0, i16 noundef zeroext %1, ptr noundef %2, ptr noundef %3) unnamed_addr #0 {
  switch i16 %1, label %75 [
    i16 1, label %5
    i16 2, label %15
    i16 3, label %25
    i16 4, label %27
    i16 5, label %37
    i16 6, label %47
    i16 7, label %58
    i16 8, label %60
    i16 18, label %65
  ]

5:                                                ; preds = %4
  %6 = tail call signext i8 @range_get_flags(ptr noundef %2) #10
  %7 = and i8 %6, 1
  %.not49 = icmp eq i8 %7, 0
  br i1 %.not49, label %8, label %79

8:                                                ; preds = %5
  %9 = getelementptr inbounds nuw i8, ptr %3, i64 8
  %10 = load i32, ptr %9, align 4
  %11 = icmp eq i32 %10, 0
  br i1 %11, label %79, label %12

12:                                               ; preds = %8
  %13 = tail call zeroext i1 @range_overright_multirange_internal(ptr noundef %0, ptr noundef %2, ptr noundef nonnull %3) #10
  %14 = xor i1 %13, true
  br label %79

15:                                               ; preds = %4
  %16 = tail call signext i8 @range_get_flags(ptr noundef %2) #10
  %17 = and i8 %16, 1
  %.not48 = icmp eq i8 %17, 0
  br i1 %.not48, label %18, label %79

18:                                               ; preds = %15
  %19 = getelementptr inbounds nuw i8, ptr %3, i64 8
  %20 = load i32, ptr %19, align 4
  %21 = icmp eq i32 %20, 0
  br i1 %21, label %79, label %22

22:                                               ; preds = %18
  %23 = tail call zeroext i1 @range_after_multirange_internal(ptr noundef %0, ptr noundef %2, ptr noundef nonnull %3) #10
  %24 = xor i1 %23, true
  br label %79

25:                                               ; preds = %4
  %26 = tail call zeroext i1 @range_overlaps_multirange_internal(ptr noundef %0, ptr noundef %2, ptr noundef %3) #10
  br label %79

27:                                               ; preds = %4
  %28 = tail call signext i8 @range_get_flags(ptr noundef %2) #10
  %29 = and i8 %28, 1
  %.not47 = icmp eq i8 %29, 0
  br i1 %.not47, label %30, label %79

30:                                               ; preds = %27
  %31 = getelementptr inbounds nuw i8, ptr %3, i64 8
  %32 = load i32, ptr %31, align 4
  %33 = icmp eq i32 %32, 0
  br i1 %33, label %79, label %34

34:                                               ; preds = %30
  %35 = tail call zeroext i1 @range_before_multirange_internal(ptr noundef %0, ptr noundef %2, ptr noundef nonnull %3) #10
  %36 = xor i1 %35, true
  br label %79

37:                                               ; preds = %4
  %38 = tail call signext i8 @range_get_flags(ptr noundef %2) #10
  %39 = and i8 %38, 1
  %.not46 = icmp eq i8 %39, 0
  br i1 %.not46, label %40, label %79

40:                                               ; preds = %37
  %41 = getelementptr inbounds nuw i8, ptr %3, i64 8
  %42 = load i32, ptr %41, align 4
  %43 = icmp eq i32 %42, 0
  br i1 %43, label %79, label %44

44:                                               ; preds = %40
  %45 = tail call zeroext i1 @range_overleft_multirange_internal(ptr noundef %0, ptr noundef %2, ptr noundef nonnull %3) #10
  %46 = xor i1 %45, true
  br label %79

47:                                               ; preds = %4
  %48 = tail call signext i8 @range_get_flags(ptr noundef %2) #10
  %49 = and i8 %48, 1
  %.not45 = icmp eq i8 %49, 0
  br i1 %.not45, label %50, label %79

50:                                               ; preds = %47
  %51 = getelementptr inbounds nuw i8, ptr %3, i64 8
  %52 = load i32, ptr %51, align 4
  %53 = icmp eq i32 %52, 0
  br i1 %53, label %79, label %54

54:                                               ; preds = %50
  %55 = tail call zeroext i1 @range_adjacent_multirange_internal(ptr noundef %0, ptr noundef %2, ptr noundef nonnull %3) #10
  br i1 %55, label %79, label %56

56:                                               ; preds = %54
  %57 = tail call zeroext i1 @range_overlaps_multirange_internal(ptr noundef %0, ptr noundef %2, ptr noundef nonnull %3) #10
  br label %79

58:                                               ; preds = %4
  %59 = tail call zeroext i1 @range_contains_multirange_internal(ptr noundef %0, ptr noundef %2, ptr noundef %3) #10
  br label %79

60:                                               ; preds = %4
  %61 = tail call signext i8 @range_get_flags(ptr noundef %2) #10
  %62 = and i8 %61, -127
  %.not = icmp eq i8 %62, 0
  br i1 %.not, label %63, label %79

63:                                               ; preds = %60
  %64 = tail call zeroext i1 @range_overlaps_multirange_internal(ptr noundef %0, ptr noundef %2, ptr noundef %3) #10
  br label %79

65:                                               ; preds = %4
  %66 = getelementptr inbounds nuw i8, ptr %3, i64 8
  %67 = load i32, ptr %66, align 4
  %68 = icmp eq i32 %67, 0
  br i1 %68, label %69, label %73

69:                                               ; preds = %65
  %70 = tail call signext i8 @range_get_flags(ptr noundef %2) #10
  %71 = and i8 %70, -127
  %72 = icmp ne i8 %71, 0
  br label %79

73:                                               ; preds = %65
  %74 = tail call zeroext i1 @range_contains_multirange_internal(ptr noundef %0, ptr noundef %2, ptr noundef nonnull %3) #10
  br label %79

75:                                               ; preds = %4
  %76 = zext i16 %1 to i32
  %77 = tail call zeroext i1 @errstart_cold(i32 noundef 21, ptr noundef null) #11
  tail call void @llvm.assume(i1 %77)
  %78 = tail call i32 (ptr, ...) @errmsg_internal(ptr noundef nonnull @.str.2, i32 noundef %76) #10
  tail call void @errfinish(ptr noundef nonnull @.str.1, i32 noundef 1030, ptr noundef nonnull @__func__.range_gist_consistent_int_multirange) #10
  unreachable

79:                                               ; preds = %60, %54, %47, %50, %37, %40, %27, %30, %15, %18, %5, %8, %73, %69, %63, %58, %56, %44, %34, %25, %22, %12
  %.0 = phi i1 [ %72, %69 ], [ %74, %73 ], [ %64, %63 ], [ %59, %58 ], [ %57, %56 ], [ %46, %44 ], [ %36, %34 ], [ %26, %25 ], [ %24, %22 ], [ %14, %12 ], [ false, %8 ], [ false, %5 ], [ false, %18 ], [ false, %15 ], [ false, %30 ], [ false, %27 ], [ false, %40 ], [ false, %37 ], [ false, %50 ], [ false, %47 ], [ true, %54 ], [ true, %60 ]
  ret i1 %.0
}